
chocoHV.elf:     file format elf64-littleaarch64


Disassembly of section .text.boot:

0000000000080000 <_start>:
   80000:	d53800a0 	mrs	x0, mpidr_el1
   80004:	92401c00 	and	x0, x0, #0xff
   80008:	b4000060 	cbz	x0, 80014 <_start_main>
   8000c:	14000001 	b	80010 <proc_hang>

0000000000080010 <proc_hang>:
   80010:	14000000 	b	80010 <proc_hang>

0000000000080014 <_start_main>:
   80014:	100043a0 	adr	x0, 80888 <uart_output_queue_write>
   80018:	100243c1 	adr	x1, 84890 <bss_end>
   8001c:	cb000021 	sub	x1, x1, x0
   80020:	94000005 	bl	80034 <memzero>
   80024:	d5034fdf 	msr	daifset, #0xf
   80028:	b26a03ff 	mov	sp, #0x400000              	// #4194304
   8002c:	94000181 	bl	80630 <kernel_main>
   80030:	17fffff8 	b	80010 <proc_hang>

Disassembly of section .text:

0000000000080034 <memzero>:
   80034:	f800841f 	str	xzr, [x0], #8
   80038:	f1002021 	subs	x1, x1, #0x8
   8003c:	54ffffcc 	b.gt	80034 <memzero>
   80040:	d65f03c0 	ret

0000000000080044 <gpio_call>:
   80044:	a9bb7bfd 	stp	x29, x30, [sp, #-80]!
   80048:	910003fd 	mov	x29, sp
   8004c:	b9002fa0 	str	w0, [x29, #44]
   80050:	b9002ba1 	str	w1, [x29, #40]
   80054:	b90027a2 	str	w2, [x29, #36]
   80058:	b90023a3 	str	w3, [x29, #32]
   8005c:	b9001fa4 	str	w4, [x29, #28]
   80060:	b94023a0 	ldr	w0, [x29, #32]
   80064:	52800021 	mov	w1, #0x1                   	// #1
   80068:	1ac02020 	lsl	w0, w1, w0
   8006c:	51000400 	sub	w0, w0, #0x1
   80070:	b9004fa0 	str	w0, [x29, #76]
   80074:	b9402fa1 	ldr	w1, [x29, #44]
   80078:	b9401fa0 	ldr	w0, [x29, #28]
   8007c:	6b00003f 	cmp	w1, w0
   80080:	54000069 	b.ls	8008c <gpio_call+0x48>  // b.plast
   80084:	52800000 	mov	w0, #0x0                   	// #0
   80088:	1400002e 	b	80140 <gpio_call+0xfc>
   8008c:	b9402ba1 	ldr	w1, [x29, #40]
   80090:	b9404fa0 	ldr	w0, [x29, #76]
   80094:	6b00003f 	cmp	w1, w0
   80098:	54000069 	b.ls	800a4 <gpio_call+0x60>  // b.plast
   8009c:	52800000 	mov	w0, #0x0                   	// #0
   800a0:	14000028 	b	80140 <gpio_call+0xfc>
   800a4:	52800401 	mov	w1, #0x20                  	// #32
   800a8:	b94023a0 	ldr	w0, [x29, #32]
   800ac:	1ac00820 	udiv	w0, w1, w0
   800b0:	b9004ba0 	str	w0, [x29, #72]
   800b4:	b9402fa1 	ldr	w1, [x29, #44]
   800b8:	b9404ba0 	ldr	w0, [x29, #72]
   800bc:	1ac00820 	udiv	w0, w1, w0
   800c0:	531e7400 	lsl	w0, w0, #2
   800c4:	b94027a1 	ldr	w1, [x29, #36]
   800c8:	0b000020 	add	w0, w1, w0
   800cc:	b90047a0 	str	w0, [x29, #68]
   800d0:	b9402fa0 	ldr	w0, [x29, #44]
   800d4:	b9404ba1 	ldr	w1, [x29, #72]
   800d8:	1ac10802 	udiv	w2, w0, w1
   800dc:	b9404ba1 	ldr	w1, [x29, #72]
   800e0:	1b017c41 	mul	w1, w2, w1
   800e4:	4b010000 	sub	w0, w0, w1
   800e8:	b94023a1 	ldr	w1, [x29, #32]
   800ec:	1b007c20 	mul	w0, w1, w0
   800f0:	b90043a0 	str	w0, [x29, #64]
   800f4:	b94047a0 	ldr	w0, [x29, #68]
   800f8:	b9003fa0 	str	w0, [x29, #60]
   800fc:	b94043a0 	ldr	w0, [x29, #64]
   80100:	b9404fa1 	ldr	w1, [x29, #76]
   80104:	1ac02020 	lsl	w0, w1, w0
   80108:	2a2003e0 	mvn	w0, w0
   8010c:	b9403fa1 	ldr	w1, [x29, #60]
   80110:	0a000020 	and	w0, w1, w0
   80114:	b9003fa0 	str	w0, [x29, #60]
   80118:	b94043a0 	ldr	w0, [x29, #64]
   8011c:	b9402ba1 	ldr	w1, [x29, #40]
   80120:	1ac02020 	lsl	w0, w1, w0
   80124:	b9403fa1 	ldr	w1, [x29, #60]
   80128:	2a000020 	orr	w0, w1, w0
   8012c:	b9003fa0 	str	w0, [x29, #60]
   80130:	b9403fa1 	ldr	w1, [x29, #60]
   80134:	b94047a0 	ldr	w0, [x29, #68]
   80138:	94000146 	bl	80650 <mmio_write32>
   8013c:	52800020 	mov	w0, #0x1                   	// #1
   80140:	a8c57bfd 	ldp	x29, x30, [sp], #80
   80144:	d65f03c0 	ret

0000000000080148 <gpio_set>:
   80148:	a9be7bfd 	stp	x29, x30, [sp, #-32]!
   8014c:	910003fd 	mov	x29, sp
   80150:	b9001fa0 	str	w0, [x29, #28]
   80154:	b9001ba1 	str	w1, [x29, #24]
   80158:	528006a4 	mov	w4, #0x35                  	// #53
   8015c:	52800023 	mov	w3, #0x1                   	// #1
   80160:	52800382 	mov	w2, #0x1c                  	// #28
   80164:	72bfc402 	movk	w2, #0xfe20, lsl #16
   80168:	b9401ba1 	ldr	w1, [x29, #24]
   8016c:	b9401fa0 	ldr	w0, [x29, #28]
   80170:	97ffffb5 	bl	80044 <gpio_call>
   80174:	a8c27bfd 	ldp	x29, x30, [sp], #32
   80178:	d65f03c0 	ret

000000000008017c <gpio_clear>:
   8017c:	a9be7bfd 	stp	x29, x30, [sp, #-32]!
   80180:	910003fd 	mov	x29, sp
   80184:	b9001fa0 	str	w0, [x29, #28]
   80188:	b9001ba1 	str	w1, [x29, #24]
   8018c:	528006a4 	mov	w4, #0x35                  	// #53
   80190:	52800023 	mov	w3, #0x1                   	// #1
   80194:	52800502 	mov	w2, #0x28                  	// #40
   80198:	72bfc402 	movk	w2, #0xfe20, lsl #16
   8019c:	b9401ba1 	ldr	w1, [x29, #24]
   801a0:	b9401fa0 	ldr	w0, [x29, #28]
   801a4:	97ffffa8 	bl	80044 <gpio_call>
   801a8:	a8c27bfd 	ldp	x29, x30, [sp], #32
   801ac:	d65f03c0 	ret

00000000000801b0 <gpio_pull>:
   801b0:	a9be7bfd 	stp	x29, x30, [sp, #-32]!
   801b4:	910003fd 	mov	x29, sp
   801b8:	b9001fa0 	str	w0, [x29, #28]
   801bc:	b9001ba1 	str	w1, [x29, #24]
   801c0:	528006a4 	mov	w4, #0x35                  	// #53
   801c4:	52800043 	mov	w3, #0x2                   	// #2
   801c8:	52801c82 	mov	w2, #0xe4                  	// #228
   801cc:	72bfc402 	movk	w2, #0xfe20, lsl #16
   801d0:	b9401ba1 	ldr	w1, [x29, #24]
   801d4:	b9401fa0 	ldr	w0, [x29, #28]
   801d8:	97ffff9b 	bl	80044 <gpio_call>
   801dc:	a8c27bfd 	ldp	x29, x30, [sp], #32
   801e0:	d65f03c0 	ret

00000000000801e4 <gpio_function>:
   801e4:	a9be7bfd 	stp	x29, x30, [sp, #-32]!
   801e8:	910003fd 	mov	x29, sp
   801ec:	b9001fa0 	str	w0, [x29, #28]
   801f0:	b9001ba1 	str	w1, [x29, #24]
   801f4:	528006a4 	mov	w4, #0x35                  	// #53
   801f8:	52800063 	mov	w3, #0x3                   	// #3
   801fc:	52bfc402 	mov	w2, #0xfe200000            	// #-31457280
   80200:	b9401ba1 	ldr	w1, [x29, #24]
   80204:	b9401fa0 	ldr	w0, [x29, #28]
   80208:	97ffff8f 	bl	80044 <gpio_call>
   8020c:	a8c27bfd 	ldp	x29, x30, [sp], #32
   80210:	d65f03c0 	ret

0000000000080214 <gpio_useAsAlt3>:
   80214:	a9be7bfd 	stp	x29, x30, [sp, #-32]!
   80218:	910003fd 	mov	x29, sp
   8021c:	b9001fa0 	str	w0, [x29, #28]
   80220:	52800001 	mov	w1, #0x0                   	// #0
   80224:	b9401fa0 	ldr	w0, [x29, #28]
   80228:	97ffffe2 	bl	801b0 <gpio_pull>
   8022c:	528000e1 	mov	w1, #0x7                   	// #7
   80230:	b9401fa0 	ldr	w0, [x29, #28]
   80234:	97ffffec 	bl	801e4 <gpio_function>
   80238:	d503201f 	nop
   8023c:	a8c27bfd 	ldp	x29, x30, [sp], #32
   80240:	d65f03c0 	ret

0000000000080244 <gpio_useAsAlt5>:
   80244:	a9be7bfd 	stp	x29, x30, [sp, #-32]!
   80248:	910003fd 	mov	x29, sp
   8024c:	b9001fa0 	str	w0, [x29, #28]
   80250:	52800001 	mov	w1, #0x0                   	// #0
   80254:	b9401fa0 	ldr	w0, [x29, #28]
   80258:	97ffffd6 	bl	801b0 <gpio_pull>
   8025c:	52800041 	mov	w1, #0x2                   	// #2
   80260:	b9401fa0 	ldr	w0, [x29, #28]
   80264:	97ffffe0 	bl	801e4 <gpio_function>
   80268:	d503201f 	nop
   8026c:	a8c27bfd 	ldp	x29, x30, [sp], #32
   80270:	d65f03c0 	ret

0000000000080274 <gpio_initOutputPinWithPullNone>:
   80274:	a9be7bfd 	stp	x29, x30, [sp, #-32]!
   80278:	910003fd 	mov	x29, sp
   8027c:	b9001fa0 	str	w0, [x29, #28]
   80280:	52800001 	mov	w1, #0x0                   	// #0
   80284:	b9401fa0 	ldr	w0, [x29, #28]
   80288:	97ffffca 	bl	801b0 <gpio_pull>
   8028c:	52800021 	mov	w1, #0x1                   	// #1
   80290:	b9401fa0 	ldr	w0, [x29, #28]
   80294:	97ffffd4 	bl	801e4 <gpio_function>
   80298:	d503201f 	nop
   8029c:	a8c27bfd 	ldp	x29, x30, [sp], #32
   802a0:	d65f03c0 	ret

00000000000802a4 <gpio_setPinOutputBool>:
   802a4:	a9be7bfd 	stp	x29, x30, [sp, #-32]!
   802a8:	910003fd 	mov	x29, sp
   802ac:	b9001fa0 	str	w0, [x29, #28]
   802b0:	b9001ba1 	str	w1, [x29, #24]
   802b4:	b9401ba0 	ldr	w0, [x29, #24]
   802b8:	7100001f 	cmp	w0, #0x0
   802bc:	540000a0 	b.eq	802d0 <gpio_setPinOutputBool+0x2c>  // b.none
   802c0:	52800021 	mov	w1, #0x1                   	// #1
   802c4:	b9401fa0 	ldr	w0, [x29, #28]
   802c8:	97ffffa0 	bl	80148 <gpio_set>
   802cc:	14000004 	b	802dc <gpio_setPinOutputBool+0x38>
   802d0:	52800021 	mov	w1, #0x1                   	// #1
   802d4:	b9401fa0 	ldr	w0, [x29, #28]
   802d8:	97ffffa9 	bl	8017c <gpio_clear>
   802dc:	d503201f 	nop
   802e0:	a8c27bfd 	ldp	x29, x30, [sp], #32
   802e4:	d65f03c0 	ret

00000000000802e8 <uart_init>:
   802e8:	a9bf7bfd 	stp	x29, x30, [sp, #-16]!
   802ec:	910003fd 	mov	x29, sp
   802f0:	52800021 	mov	w1, #0x1                   	// #1
   802f4:	528a0080 	mov	w0, #0x5004                	// #20484
   802f8:	72bfc420 	movk	w0, #0xfe21, lsl #16
   802fc:	940000d5 	bl	80650 <mmio_write32>
   80300:	52800001 	mov	w1, #0x0                   	// #0
   80304:	528a0880 	mov	w0, #0x5044                	// #20548
   80308:	72bfc420 	movk	w0, #0xfe21, lsl #16
   8030c:	940000d1 	bl	80650 <mmio_write32>
   80310:	52800001 	mov	w1, #0x0                   	// #0
   80314:	528a0c00 	mov	w0, #0x5060                	// #20576
   80318:	72bfc420 	movk	w0, #0xfe21, lsl #16
   8031c:	940000cd 	bl	80650 <mmio_write32>
   80320:	52800061 	mov	w1, #0x3                   	// #3
   80324:	528a0980 	mov	w0, #0x504c                	// #20556
   80328:	72bfc420 	movk	w0, #0xfe21, lsl #16
   8032c:	940000c9 	bl	80650 <mmio_write32>
   80330:	52800001 	mov	w1, #0x0                   	// #0
   80334:	528a0a00 	mov	w0, #0x5050                	// #20560
   80338:	72bfc420 	movk	w0, #0xfe21, lsl #16
   8033c:	940000c5 	bl	80650 <mmio_write32>
   80340:	52800001 	mov	w1, #0x0                   	// #0
   80344:	528a0880 	mov	w0, #0x5044                	// #20548
   80348:	72bfc420 	movk	w0, #0xfe21, lsl #16
   8034c:	940000c1 	bl	80650 <mmio_write32>
   80350:	528018c1 	mov	w1, #0xc6                  	// #198
   80354:	528a0900 	mov	w0, #0x5048                	// #20552
   80358:	72bfc420 	movk	w0, #0xfe21, lsl #16
   8035c:	940000bd 	bl	80650 <mmio_write32>
   80360:	528043a1 	mov	w1, #0x21d                 	// #541
   80364:	528a0d00 	mov	w0, #0x5068                	// #20584
   80368:	72bfc420 	movk	w0, #0xfe21, lsl #16
   8036c:	940000b9 	bl	80650 <mmio_write32>
   80370:	528001c0 	mov	w0, #0xe                   	// #14
   80374:	97ffffb4 	bl	80244 <gpio_useAsAlt5>
   80378:	528001e0 	mov	w0, #0xf                   	// #15
   8037c:	97ffffb2 	bl	80244 <gpio_useAsAlt5>
   80380:	52800061 	mov	w1, #0x3                   	// #3
   80384:	528a0c00 	mov	w0, #0x5060                	// #20576
   80388:	72bfc420 	movk	w0, #0xfe21, lsl #16
   8038c:	940000b1 	bl	80650 <mmio_write32>
   80390:	d503201f 	nop
   80394:	a8c17bfd 	ldp	x29, x30, [sp], #16
   80398:	d65f03c0 	ret

000000000008039c <uart_isOutputQueueEmpty>:
   8039c:	90000000 	adrp	x0, 80000 <_start>
   803a0:	91223000 	add	x0, x0, #0x88c
   803a4:	b9400001 	ldr	w1, [x0]
   803a8:	90000000 	adrp	x0, 80000 <_start>
   803ac:	91222000 	add	x0, x0, #0x888
   803b0:	b9400000 	ldr	w0, [x0]
   803b4:	6b00003f 	cmp	w1, w0
   803b8:	1a9f17e0 	cset	w0, eq  // eq = none
   803bc:	12001c00 	and	w0, w0, #0xff
   803c0:	d65f03c0 	ret

00000000000803c4 <uart_isReadByteReady>:
   803c4:	a9bf7bfd 	stp	x29, x30, [sp, #-16]!
   803c8:	910003fd 	mov	x29, sp
   803cc:	528a0a80 	mov	w0, #0x5054                	// #20564
   803d0:	72bfc420 	movk	w0, #0xfe21, lsl #16
   803d4:	940000a1 	bl	80658 <mmio_read32>
   803d8:	12000000 	and	w0, w0, #0x1
   803dc:	a8c17bfd 	ldp	x29, x30, [sp], #16
   803e0:	d65f03c0 	ret

00000000000803e4 <uart_isWriteByteReady>:
   803e4:	a9bf7bfd 	stp	x29, x30, [sp, #-16]!
   803e8:	910003fd 	mov	x29, sp
   803ec:	528a0a80 	mov	w0, #0x5054                	// #20564
   803f0:	72bfc420 	movk	w0, #0xfe21, lsl #16
   803f4:	94000099 	bl	80658 <mmio_read32>
   803f8:	121b0000 	and	w0, w0, #0x20
   803fc:	a8c17bfd 	ldp	x29, x30, [sp], #16
   80400:	d65f03c0 	ret

0000000000080404 <uart_readByte>:
   80404:	a9bf7bfd 	stp	x29, x30, [sp, #-16]!
   80408:	910003fd 	mov	x29, sp
   8040c:	d503201f 	nop
   80410:	97ffffed 	bl	803c4 <uart_isReadByteReady>
   80414:	7100001f 	cmp	w0, #0x0
   80418:	54ffffc0 	b.eq	80410 <uart_readByte+0xc>  // b.none
   8041c:	528a0800 	mov	w0, #0x5040                	// #20544
   80420:	72bfc420 	movk	w0, #0xfe21, lsl #16
   80424:	9400008d 	bl	80658 <mmio_read32>
   80428:	12001c00 	and	w0, w0, #0xff
   8042c:	a8c17bfd 	ldp	x29, x30, [sp], #16
   80430:	d65f03c0 	ret

0000000000080434 <uart_writeByteBlockingActual>:
   80434:	a9be7bfd 	stp	x29, x30, [sp, #-32]!
   80438:	910003fd 	mov	x29, sp
   8043c:	39007fa0 	strb	w0, [x29, #31]
   80440:	d503201f 	nop
   80444:	97ffffe8 	bl	803e4 <uart_isWriteByteReady>
   80448:	7100001f 	cmp	w0, #0x0
   8044c:	54ffffc0 	b.eq	80444 <uart_writeByteBlockingActual+0x10>  // b.none
   80450:	39407fa0 	ldrb	w0, [x29, #31]
   80454:	2a0003e1 	mov	w1, w0
   80458:	528a0800 	mov	w0, #0x5040                	// #20544
   8045c:	72bfc420 	movk	w0, #0xfe21, lsl #16
   80460:	9400007c 	bl	80650 <mmio_write32>
   80464:	d503201f 	nop
   80468:	a8c27bfd 	ldp	x29, x30, [sp], #32
   8046c:	d65f03c0 	ret

0000000000080470 <uart_loadOutputFifo>:
   80470:	a9bf7bfd 	stp	x29, x30, [sp, #-16]!
   80474:	910003fd 	mov	x29, sp
   80478:	14000011 	b	804bc <uart_loadOutputFifo+0x4c>
   8047c:	90000000 	adrp	x0, 80000 <_start>
   80480:	91223000 	add	x0, x0, #0x88c
   80484:	b9400002 	ldr	w2, [x0]
   80488:	90000000 	adrp	x0, 80000 <_start>
   8048c:	f9443401 	ldr	x1, [x0, #2152]
   80490:	2a0203e0 	mov	w0, w2
   80494:	38606820 	ldrb	w0, [x1, x0]
   80498:	97ffffe7 	bl	80434 <uart_writeByteBlockingActual>
   8049c:	90000000 	adrp	x0, 80000 <_start>
   804a0:	91223000 	add	x0, x0, #0x88c
   804a4:	b9400000 	ldr	w0, [x0]
   804a8:	11000400 	add	w0, w0, #0x1
   804ac:	12003401 	and	w1, w0, #0x3fff
   804b0:	90000000 	adrp	x0, 80000 <_start>
   804b4:	91223000 	add	x0, x0, #0x88c
   804b8:	b9000001 	str	w1, [x0]
   804bc:	97ffffb8 	bl	8039c <uart_isOutputQueueEmpty>
   804c0:	7100001f 	cmp	w0, #0x0
   804c4:	54000081 	b.ne	804d4 <uart_loadOutputFifo+0x64>  // b.any
   804c8:	97ffffc7 	bl	803e4 <uart_isWriteByteReady>
   804cc:	7100001f 	cmp	w0, #0x0
   804d0:	54fffd61 	b.ne	8047c <uart_loadOutputFifo+0xc>  // b.any
   804d4:	d503201f 	nop
   804d8:	a8c17bfd 	ldp	x29, x30, [sp], #16
   804dc:	d65f03c0 	ret

00000000000804e0 <uart_writeByteBlocking>:
   804e0:	a9bd7bfd 	stp	x29, x30, [sp, #-48]!
   804e4:	910003fd 	mov	x29, sp
   804e8:	39007fa0 	strb	w0, [x29, #31]
   804ec:	90000000 	adrp	x0, 80000 <_start>
   804f0:	91222000 	add	x0, x0, #0x888
   804f4:	b9400000 	ldr	w0, [x0]
   804f8:	11000400 	add	w0, w0, #0x1
   804fc:	12003400 	and	w0, w0, #0x3fff
   80500:	b9002fa0 	str	w0, [x29, #44]
   80504:	14000002 	b	8050c <uart_writeByteBlocking+0x2c>
   80508:	97ffffda 	bl	80470 <uart_loadOutputFifo>
   8050c:	90000000 	adrp	x0, 80000 <_start>
   80510:	91223000 	add	x0, x0, #0x88c
   80514:	b9400000 	ldr	w0, [x0]
   80518:	b9402fa1 	ldr	w1, [x29, #44]
   8051c:	6b00003f 	cmp	w1, w0
   80520:	54ffff40 	b.eq	80508 <uart_writeByteBlocking+0x28>  // b.none
   80524:	90000000 	adrp	x0, 80000 <_start>
   80528:	91222000 	add	x0, x0, #0x888
   8052c:	b9400002 	ldr	w2, [x0]
   80530:	90000000 	adrp	x0, 80000 <_start>
   80534:	f9443401 	ldr	x1, [x0, #2152]
   80538:	2a0203e0 	mov	w0, w2
   8053c:	39407fa2 	ldrb	w2, [x29, #31]
   80540:	38206822 	strb	w2, [x1, x0]
   80544:	90000000 	adrp	x0, 80000 <_start>
   80548:	91222000 	add	x0, x0, #0x888
   8054c:	b9402fa1 	ldr	w1, [x29, #44]
   80550:	b9000001 	str	w1, [x0]
   80554:	d503201f 	nop
   80558:	a8c37bfd 	ldp	x29, x30, [sp], #48
   8055c:	d65f03c0 	ret

0000000000080560 <uart_writeText>:
   80560:	a9be7bfd 	stp	x29, x30, [sp, #-32]!
   80564:	910003fd 	mov	x29, sp
   80568:	f9000fa0 	str	x0, [x29, #24]
   8056c:	1400000c 	b	8059c <uart_writeText+0x3c>
   80570:	f9400fa0 	ldr	x0, [x29, #24]
   80574:	39400000 	ldrb	w0, [x0]
   80578:	7100281f 	cmp	w0, #0xa
   8057c:	54000061 	b.ne	80588 <uart_writeText+0x28>  // b.any
   80580:	528001a0 	mov	w0, #0xd                   	// #13
   80584:	97ffffd7 	bl	804e0 <uart_writeByteBlocking>
   80588:	f9400fa0 	ldr	x0, [x29, #24]
   8058c:	91000401 	add	x1, x0, #0x1
   80590:	f9000fa1 	str	x1, [x29, #24]
   80594:	39400000 	ldrb	w0, [x0]
   80598:	97ffffd2 	bl	804e0 <uart_writeByteBlocking>
   8059c:	f9400fa0 	ldr	x0, [x29, #24]
   805a0:	39400000 	ldrb	w0, [x0]
   805a4:	7100001f 	cmp	w0, #0x0
   805a8:	54fffe41 	b.ne	80570 <uart_writeText+0x10>  // b.any
   805ac:	d503201f 	nop
   805b0:	a8c27bfd 	ldp	x29, x30, [sp], #32
   805b4:	d65f03c0 	ret

00000000000805b8 <uart_drainOutputQueue>:
   805b8:	a9bf7bfd 	stp	x29, x30, [sp, #-16]!
   805bc:	910003fd 	mov	x29, sp
   805c0:	14000002 	b	805c8 <uart_drainOutputQueue+0x10>
   805c4:	97ffffab 	bl	80470 <uart_loadOutputFifo>
   805c8:	97ffff75 	bl	8039c <uart_isOutputQueueEmpty>
   805cc:	7100001f 	cmp	w0, #0x0
   805d0:	54ffffa0 	b.eq	805c4 <uart_drainOutputQueue+0xc>  // b.none
   805d4:	d503201f 	nop
   805d8:	a8c17bfd 	ldp	x29, x30, [sp], #16
   805dc:	d65f03c0 	ret

00000000000805e0 <uart_update>:
   805e0:	a9be7bfd 	stp	x29, x30, [sp, #-32]!
   805e4:	910003fd 	mov	x29, sp
   805e8:	97ffffa2 	bl	80470 <uart_loadOutputFifo>
   805ec:	97ffff76 	bl	803c4 <uart_isReadByteReady>
   805f0:	7100001f 	cmp	w0, #0x0
   805f4:	54000180 	b.eq	80624 <uart_update+0x44>  // b.none
   805f8:	97ffff83 	bl	80404 <uart_readByte>
   805fc:	39007fa0 	strb	w0, [x29, #31]
   80600:	39407fa0 	ldrb	w0, [x29, #31]
   80604:	7100341f 	cmp	w0, #0xd
   80608:	540000a1 	b.ne	8061c <uart_update+0x3c>  // b.any
   8060c:	90000000 	adrp	x0, 80000 <_start>
   80610:	911c8000 	add	x0, x0, #0x720
   80614:	97ffffd3 	bl	80560 <uart_writeText>
   80618:	14000003 	b	80624 <uart_update+0x44>
   8061c:	39407fa0 	ldrb	w0, [x29, #31]
   80620:	97ffffb0 	bl	804e0 <uart_writeByteBlocking>
   80624:	d503201f 	nop
   80628:	a8c27bfd 	ldp	x29, x30, [sp], #32
   8062c:	d65f03c0 	ret

0000000000080630 <kernel_main>:
   80630:	a9bf7bfd 	stp	x29, x30, [sp, #-16]!
   80634:	910003fd 	mov	x29, sp
   80638:	97ffff2c 	bl	802e8 <uart_init>
   8063c:	90000000 	adrp	x0, 80000 <_start>
   80640:	911ca000 	add	x0, x0, #0x728
   80644:	97ffffc7 	bl	80560 <uart_writeText>
   80648:	97ffffe6 	bl	805e0 <uart_update>
   8064c:	17ffffff 	b	80648 <kernel_main+0x18>

0000000000080650 <mmio_write32>:
   80650:	b9000001 	str	w1, [x0]
   80654:	d65f03c0 	ret

0000000000080658 <mmio_read32>:
   80658:	b9400000 	ldr	w0, [x0]
   8065c:	d65f03c0 	ret

0000000000080660 <delay>:
   80660:	f1000400 	subs	x0, x0, #0x1
   80664:	54ffffe1 	b.ne	80660 <delay>  // b.any
   80668:	d65f03c0 	ret
